
stm32f303xCxx_drivers.elf:     file format elf32-littlearm

Sections:
Idx Name          Size      VMA       LMA       File off  Algn
  0 .isr_vector   00000194  08000000  08000000  00010000  2**0
                  CONTENTS, ALLOC, LOAD, READONLY, DATA
  1 .text         0000079c  08000194  08000194  00010194  2**2
                  CONTENTS, ALLOC, LOAD, READONLY, CODE
  2 .rodata       00000000  08000930  08000938  00010938  2**0
                  CONTENTS, ALLOC, LOAD, DATA
  3 .ARM.extab    00000000  08000930  08000930  00010938  2**0
                  CONTENTS
  4 .ARM          00000000  08000930  08000930  00010938  2**0
                  CONTENTS
  5 .preinit_array 00000000  08000930  08000938  00010938  2**0
                  CONTENTS, ALLOC, LOAD, DATA
  6 .init_array   00000004  08000930  08000930  00010930  2**2
                  CONTENTS, ALLOC, LOAD, DATA
  7 .fini_array   00000004  08000934  08000934  00010934  2**2
                  CONTENTS, ALLOC, LOAD, DATA
  8 .data         00000000  20000000  20000000  00010938  2**0
                  CONTENTS, ALLOC, LOAD, DATA
  9 .ccmram       00000000  10000000  10000000  00010938  2**0
                  CONTENTS
 10 .bss          0000001c  20000000  20000000  00020000  2**2
                  ALLOC
 11 ._user_heap_stack 00000604  2000001c  2000001c  00020000  2**0
                  ALLOC
 12 .ARM.attributes 0000002a  00000000  00000000  00010938  2**0
                  CONTENTS, READONLY
 13 .comment      00000043  00000000  00000000  00010962  2**0
                  CONTENTS, READONLY
 14 .debug_info   000009ad  00000000  00000000  000109a5  2**0
                  CONTENTS, READONLY, DEBUGGING, OCTETS
 15 .debug_abbrev 000002b6  00000000  00000000  00011352  2**0
                  CONTENTS, READONLY, DEBUGGING, OCTETS
 16 .debug_aranges 000000c8  00000000  00000000  00011608  2**3
                  CONTENTS, READONLY, DEBUGGING, OCTETS
 17 .debug_rnglists 0000008c  00000000  00000000  000116d0  2**0
                  CONTENTS, READONLY, DEBUGGING, OCTETS
 18 .debug_macro  00002269  00000000  00000000  0001175c  2**0
                  CONTENTS, READONLY, DEBUGGING, OCTETS
 19 .debug_line   000010af  00000000  00000000  000139c5  2**0
                  CONTENTS, READONLY, DEBUGGING, OCTETS
 20 .debug_str    00008a1b  00000000  00000000  00014a74  2**0
                  CONTENTS, READONLY, DEBUGGING, OCTETS
 21 .debug_frame  00000288  00000000  00000000  0001d490  2**2
                  CONTENTS, READONLY, DEBUGGING, OCTETS
 22 .debug_line_str 00000062  00000000  00000000  0001d718  2**0
                  CONTENTS, READONLY, DEBUGGING, OCTETS

Disassembly of section .text:

08000194 <__do_global_dtors_aux>:
 8000194:	b510      	push	{r4, lr}
 8000196:	4c05      	ldr	r4, [pc, #20]	; (80001ac <__do_global_dtors_aux+0x18>)
 8000198:	7823      	ldrb	r3, [r4, #0]
 800019a:	b933      	cbnz	r3, 80001aa <__do_global_dtors_aux+0x16>
 800019c:	4b04      	ldr	r3, [pc, #16]	; (80001b0 <__do_global_dtors_aux+0x1c>)
 800019e:	b113      	cbz	r3, 80001a6 <__do_global_dtors_aux+0x12>
 80001a0:	4804      	ldr	r0, [pc, #16]	; (80001b4 <__do_global_dtors_aux+0x20>)
 80001a2:	f3af 8000 	nop.w
 80001a6:	2301      	movs	r3, #1
 80001a8:	7023      	strb	r3, [r4, #0]
 80001aa:	bd10      	pop	{r4, pc}
 80001ac:	20000000 	.word	0x20000000
 80001b0:	00000000 	.word	0x00000000
 80001b4:	08000918 	.word	0x08000918

080001b8 <frame_dummy>:
 80001b8:	b508      	push	{r3, lr}
 80001ba:	4b03      	ldr	r3, [pc, #12]	; (80001c8 <frame_dummy+0x10>)
 80001bc:	b11b      	cbz	r3, 80001c6 <frame_dummy+0xe>
 80001be:	4903      	ldr	r1, [pc, #12]	; (80001cc <frame_dummy+0x14>)
 80001c0:	4803      	ldr	r0, [pc, #12]	; (80001d0 <frame_dummy+0x18>)
 80001c2:	f3af 8000 	nop.w
 80001c6:	bd08      	pop	{r3, pc}
 80001c8:	00000000 	.word	0x00000000
 80001cc:	20000004 	.word	0x20000004
 80001d0:	08000918 	.word	0x08000918

080001d4 <main>:
{
	for(uint32_t i = 0; i <= 300000/2; i++);
}

int main(void)
{
 80001d4:	b580      	push	{r7, lr}
 80001d6:	b086      	sub	sp, #24
 80001d8:	af00      	add	r7, sp, #0
	GPIO_Handle_t GpioLed, UsrBtn;
	memset(&GpioLed,0,sizeof(GpioLed)); //This ensure all member elements are initialized to zero
 80001da:	f107 030c 	add.w	r3, r7, #12
 80001de:	220c      	movs	r2, #12
 80001e0:	2100      	movs	r1, #0
 80001e2:	4618      	mov	r0, r3
 80001e4:	f000 fb6c 	bl	80008c0 <memset>
	memset(&UsrBtn,0,sizeof(UsrBtn));
 80001e8:	463b      	mov	r3, r7
 80001ea:	220c      	movs	r2, #12
 80001ec:	2100      	movs	r1, #0
 80001ee:	4618      	mov	r0, r3
 80001f0:	f000 fb66 	bl	80008c0 <memset>
	//Configure LED pin
	GpioLed.pGPIOx = GPIOE;
 80001f4:	4b16      	ldr	r3, [pc, #88]	; (8000250 <main+0x7c>)
 80001f6:	60fb      	str	r3, [r7, #12]
	GpioLed.GPIO_PinConfig.GPIO_PinNumber = GPIO_PIN_NO_14;
 80001f8:	230e      	movs	r3, #14
 80001fa:	743b      	strb	r3, [r7, #16]
	GpioLed.GPIO_PinConfig.GPIO_PinMode = GPIO_MODE_OUT;
 80001fc:	2301      	movs	r3, #1
 80001fe:	747b      	strb	r3, [r7, #17]
	GpioLed.GPIO_PinConfig.GPIO_PinOutType = GPIO_OP_TYPE_PP;
 8000200:	2300      	movs	r3, #0
 8000202:	74bb      	strb	r3, [r7, #18]
	GpioLed.GPIO_PinConfig.GPIO_PinPuPd = GPIO_NO_PUPD;
 8000204:	2300      	movs	r3, #0
 8000206:	753b      	strb	r3, [r7, #20]
	//Enable LED pin
	GPIO_PClkCtrl(GPIOE, ENABLE);
 8000208:	2101      	movs	r1, #1
 800020a:	4811      	ldr	r0, [pc, #68]	; (8000250 <main+0x7c>)
 800020c:	f000 f85a 	bl	80002c4 <GPIO_PClkCtrl>
	GPIO_Init(&GpioLed);
 8000210:	f107 030c 	add.w	r3, r7, #12
 8000214:	4618      	mov	r0, r3
 8000216:	f000 f8f3 	bl	8000400 <GPIO_Init>
	//Configure Button Pin
	UsrBtn.pGPIOx = GPIOA;
 800021a:	f04f 4390 	mov.w	r3, #1207959552	; 0x48000000
 800021e:	603b      	str	r3, [r7, #0]
	UsrBtn.GPIO_PinConfig.GPIO_PinNumber = GPIO_PIN_NO_0;
 8000220:	2300      	movs	r3, #0
 8000222:	713b      	strb	r3, [r7, #4]
	UsrBtn.GPIO_PinConfig.GPIO_PinMode = GPIO_MODE_INTRUPT_FALL;
 8000224:	2304      	movs	r3, #4
 8000226:	717b      	strb	r3, [r7, #5]
	UsrBtn.GPIO_PinConfig.GPIO_PinPuPd = GPIO_NO_PUPD;
 8000228:	2300      	movs	r3, #0
 800022a:	723b      	strb	r3, [r7, #8]
	//Enable Button Pin
	GPIO_PClkCtrl(GPIOA, ENABLE);
 800022c:	2101      	movs	r1, #1
 800022e:	f04f 4090 	mov.w	r0, #1207959552	; 0x48000000
 8000232:	f000 f847 	bl	80002c4 <GPIO_PClkCtrl>
	GPIO_Init(&UsrBtn);
 8000236:	463b      	mov	r3, r7
 8000238:	4618      	mov	r0, r3
 800023a:	f000 f8e1 	bl	8000400 <GPIO_Init>
	//Interrupt handling
	GPIO_IRQPriorityConfig(IRQ_NO_EXTI0, PRIORITY_1);
 800023e:	2101      	movs	r1, #1
 8000240:	2006      	movs	r0, #6
 8000242:	f000 faf3 	bl	800082c <GPIO_IRQPriorityConfig>
	GPIO_IRQConfig(IRQ_NO_EXTI0, ENABLE);
 8000246:	2101      	movs	r1, #1
 8000248:	2006      	movs	r0, #6
 800024a:	f000 fa6b 	bl	8000724 <GPIO_IRQConfig>
    /* Loop forever */
	while(1);
 800024e:	e7fe      	b.n	800024e <main+0x7a>
 8000250:	48001000 	.word	0x48001000

08000254 <EXTI0_IRQHandler>:
}

void EXTI0_IRQHandler(void)
{
 8000254:	b580      	push	{r7, lr}
 8000256:	af00      	add	r7, sp, #0
//	delay();
	GPIO_IRQHandling(GPIO_PIN_NO_0);
 8000258:	2000      	movs	r0, #0
 800025a:	f000 fb11 	bl	8000880 <GPIO_IRQHandling>
	GPIO_ToggleOpPin(GPIOE, GPIO_PIN_NO_14);
 800025e:	210e      	movs	r1, #14
 8000260:	4802      	ldr	r0, [pc, #8]	; (800026c <EXTI0_IRQHandler+0x18>)
 8000262:	f000 fa4b 	bl	80006fc <GPIO_ToggleOpPin>
}
 8000266:	bf00      	nop
 8000268:	bd80      	pop	{r7, pc}
 800026a:	bf00      	nop
 800026c:	48001000 	.word	0x48001000

08000270 <Reset_Handler>:

  .section .text.Reset_Handler
  .weak Reset_Handler
  .type Reset_Handler, %function
Reset_Handler:
  ldr   r0, =_estack
 8000270:	480d      	ldr	r0, [pc, #52]	; (80002a8 <LoopForever+0x2>)
  mov   sp, r0          /* set stack pointer */
 8000272:	4685      	mov	sp, r0
/* Call the clock system initialization function.*/
  bl  SystemInit
 8000274:	f3af 8000 	nop.w

/* Copy the data segment initializers from flash to SRAM */
  ldr r0, =_sdata
 8000278:	480c      	ldr	r0, [pc, #48]	; (80002ac <LoopForever+0x6>)
  ldr r1, =_edata
 800027a:	490d      	ldr	r1, [pc, #52]	; (80002b0 <LoopForever+0xa>)
  ldr r2, =_sidata
 800027c:	4a0d      	ldr	r2, [pc, #52]	; (80002b4 <LoopForever+0xe>)
  movs r3, #0
 800027e:	2300      	movs	r3, #0
  b LoopCopyDataInit
 8000280:	e002      	b.n	8000288 <LoopCopyDataInit>

08000282 <CopyDataInit>:

CopyDataInit:
  ldr r4, [r2, r3]
 8000282:	58d4      	ldr	r4, [r2, r3]
  str r4, [r0, r3]
 8000284:	50c4      	str	r4, [r0, r3]
  adds r3, r3, #4
 8000286:	3304      	adds	r3, #4

08000288 <LoopCopyDataInit>:

LoopCopyDataInit:
  adds r4, r0, r3
 8000288:	18c4      	adds	r4, r0, r3
  cmp r4, r1
 800028a:	428c      	cmp	r4, r1
  bcc CopyDataInit
 800028c:	d3f9      	bcc.n	8000282 <CopyDataInit>

/* Zero fill the bss segment. */
  ldr r2, =_sbss
 800028e:	4a0a      	ldr	r2, [pc, #40]	; (80002b8 <LoopForever+0x12>)
  ldr r4, =_ebss
 8000290:	4c0a      	ldr	r4, [pc, #40]	; (80002bc <LoopForever+0x16>)
  movs r3, #0
 8000292:	2300      	movs	r3, #0
  b LoopFillZerobss
 8000294:	e001      	b.n	800029a <LoopFillZerobss>

08000296 <FillZerobss>:

FillZerobss:
  str  r3, [r2]
 8000296:	6013      	str	r3, [r2, #0]
  adds r2, r2, #4
 8000298:	3204      	adds	r2, #4

0800029a <LoopFillZerobss>:

LoopFillZerobss:
  cmp r2, r4
 800029a:	42a2      	cmp	r2, r4
  bcc FillZerobss
 800029c:	d3fb      	bcc.n	8000296 <FillZerobss>

/* Call static constructors */
  bl __libc_init_array
 800029e:	f000 fb17 	bl	80008d0 <__libc_init_array>
/* Call the application's entry point.*/
  bl main
 80002a2:	f7ff ff97 	bl	80001d4 <main>

080002a6 <LoopForever>:

LoopForever:
  b LoopForever
 80002a6:	e7fe      	b.n	80002a6 <LoopForever>
  ldr   r0, =_estack
 80002a8:	2000a000 	.word	0x2000a000
  ldr r0, =_sdata
 80002ac:	20000000 	.word	0x20000000
  ldr r1, =_edata
 80002b0:	20000000 	.word	0x20000000
  ldr r2, =_sidata
 80002b4:	08000938 	.word	0x08000938
  ldr r2, =_sbss
 80002b8:	20000000 	.word	0x20000000
  ldr r4, =_ebss
 80002bc:	2000001c 	.word	0x2000001c

080002c0 <ADC1_2_IRQHandler>:
 * @retval : None
*/
  .section .text.Default_Handler,"ax",%progbits
Default_Handler:
Infinite_Loop:
  b Infinite_Loop
 80002c0:	e7fe      	b.n	80002c0 <ADC1_2_IRQHandler>
	...

080002c4 <GPIO_PClkCtrl>:
 * @return 			- none
 *
 * @Note			- none
 */
void GPIO_PClkCtrl(GPIO_RegDef_t *pGPIOx, uint8_t E_D)
{
 80002c4:	b480      	push	{r7}
 80002c6:	b083      	sub	sp, #12
 80002c8:	af00      	add	r7, sp, #0
 80002ca:	6078      	str	r0, [r7, #4]
 80002cc:	460b      	mov	r3, r1
 80002ce:	70fb      	strb	r3, [r7, #3]
	if(E_D == ENABLE)
 80002d0:	78fb      	ldrb	r3, [r7, #3]
 80002d2:	2b01      	cmp	r3, #1
 80002d4:	d141      	bne.n	800035a <GPIO_PClkCtrl+0x96>
	{
		if(pGPIOx == GPIOA)			{	GPIOA_CLK_EN();	}
 80002d6:	687b      	ldr	r3, [r7, #4]
 80002d8:	f1b3 4f90 	cmp.w	r3, #1207959552	; 0x48000000
 80002dc:	d106      	bne.n	80002ec <GPIO_PClkCtrl+0x28>
 80002de:	4b42      	ldr	r3, [pc, #264]	; (80003e8 <GPIO_PClkCtrl+0x124>)
 80002e0:	695b      	ldr	r3, [r3, #20]
 80002e2:	4a41      	ldr	r2, [pc, #260]	; (80003e8 <GPIO_PClkCtrl+0x124>)
 80002e4:	f443 3300 	orr.w	r3, r3, #131072	; 0x20000
 80002e8:	6153      	str	r3, [r2, #20]
		else if(pGPIOx == GPIOC) 	{	GPIOC_CLK_DI();	}
		else if(pGPIOx == GPIOD) 	{	GPIOD_CLK_DI();	}
		else if(pGPIOx == GPIOE) 	{	GPIOE_CLK_DI();	}
		else if(pGPIOx == GPIOF) 	{	GPIOF_CLK_DI();	}
	}
}
 80002ea:	e077      	b.n	80003dc <GPIO_PClkCtrl+0x118>
		else if(pGPIOx == GPIOB) 	{	GPIOB_CLK_EN();	}
 80002ec:	687b      	ldr	r3, [r7, #4]
 80002ee:	4a3f      	ldr	r2, [pc, #252]	; (80003ec <GPIO_PClkCtrl+0x128>)
 80002f0:	4293      	cmp	r3, r2
 80002f2:	d106      	bne.n	8000302 <GPIO_PClkCtrl+0x3e>
 80002f4:	4b3c      	ldr	r3, [pc, #240]	; (80003e8 <GPIO_PClkCtrl+0x124>)
 80002f6:	695b      	ldr	r3, [r3, #20]
 80002f8:	4a3b      	ldr	r2, [pc, #236]	; (80003e8 <GPIO_PClkCtrl+0x124>)
 80002fa:	f443 2380 	orr.w	r3, r3, #262144	; 0x40000
 80002fe:	6153      	str	r3, [r2, #20]
}
 8000300:	e06c      	b.n	80003dc <GPIO_PClkCtrl+0x118>
		else if(pGPIOx == GPIOC) 	{	GPIOC_CLK_EN();	}
 8000302:	687b      	ldr	r3, [r7, #4]
 8000304:	4a3a      	ldr	r2, [pc, #232]	; (80003f0 <GPIO_PClkCtrl+0x12c>)
 8000306:	4293      	cmp	r3, r2
 8000308:	d106      	bne.n	8000318 <GPIO_PClkCtrl+0x54>
 800030a:	4b37      	ldr	r3, [pc, #220]	; (80003e8 <GPIO_PClkCtrl+0x124>)
 800030c:	695b      	ldr	r3, [r3, #20]
 800030e:	4a36      	ldr	r2, [pc, #216]	; (80003e8 <GPIO_PClkCtrl+0x124>)
 8000310:	f443 2300 	orr.w	r3, r3, #524288	; 0x80000
 8000314:	6153      	str	r3, [r2, #20]
}
 8000316:	e061      	b.n	80003dc <GPIO_PClkCtrl+0x118>
		else if(pGPIOx == GPIOD) 	{	GPIOD_CLK_EN();	}
 8000318:	687b      	ldr	r3, [r7, #4]
 800031a:	4a36      	ldr	r2, [pc, #216]	; (80003f4 <GPIO_PClkCtrl+0x130>)
 800031c:	4293      	cmp	r3, r2
 800031e:	d106      	bne.n	800032e <GPIO_PClkCtrl+0x6a>
 8000320:	4b31      	ldr	r3, [pc, #196]	; (80003e8 <GPIO_PClkCtrl+0x124>)
 8000322:	695b      	ldr	r3, [r3, #20]
 8000324:	4a30      	ldr	r2, [pc, #192]	; (80003e8 <GPIO_PClkCtrl+0x124>)
 8000326:	f443 1380 	orr.w	r3, r3, #1048576	; 0x100000
 800032a:	6153      	str	r3, [r2, #20]
}
 800032c:	e056      	b.n	80003dc <GPIO_PClkCtrl+0x118>
		else if(pGPIOx == GPIOE) 	{	GPIOE_CLK_EN();	}
 800032e:	687b      	ldr	r3, [r7, #4]
 8000330:	4a31      	ldr	r2, [pc, #196]	; (80003f8 <GPIO_PClkCtrl+0x134>)
 8000332:	4293      	cmp	r3, r2
 8000334:	d106      	bne.n	8000344 <GPIO_PClkCtrl+0x80>
 8000336:	4b2c      	ldr	r3, [pc, #176]	; (80003e8 <GPIO_PClkCtrl+0x124>)
 8000338:	695b      	ldr	r3, [r3, #20]
 800033a:	4a2b      	ldr	r2, [pc, #172]	; (80003e8 <GPIO_PClkCtrl+0x124>)
 800033c:	f443 1300 	orr.w	r3, r3, #2097152	; 0x200000
 8000340:	6153      	str	r3, [r2, #20]
}
 8000342:	e04b      	b.n	80003dc <GPIO_PClkCtrl+0x118>
		else if(pGPIOx == GPIOF) 	{	GPIOF_CLK_EN();	}
 8000344:	687b      	ldr	r3, [r7, #4]
 8000346:	4a2d      	ldr	r2, [pc, #180]	; (80003fc <GPIO_PClkCtrl+0x138>)
 8000348:	4293      	cmp	r3, r2
 800034a:	d147      	bne.n	80003dc <GPIO_PClkCtrl+0x118>
 800034c:	4b26      	ldr	r3, [pc, #152]	; (80003e8 <GPIO_PClkCtrl+0x124>)
 800034e:	695b      	ldr	r3, [r3, #20]
 8000350:	4a25      	ldr	r2, [pc, #148]	; (80003e8 <GPIO_PClkCtrl+0x124>)
 8000352:	f443 0380 	orr.w	r3, r3, #4194304	; 0x400000
 8000356:	6153      	str	r3, [r2, #20]
}
 8000358:	e040      	b.n	80003dc <GPIO_PClkCtrl+0x118>
		if(pGPIOx == GPIOA)			{	GPIOA_CLK_DI();	}
 800035a:	687b      	ldr	r3, [r7, #4]
 800035c:	f1b3 4f90 	cmp.w	r3, #1207959552	; 0x48000000
 8000360:	d106      	bne.n	8000370 <GPIO_PClkCtrl+0xac>
 8000362:	4b21      	ldr	r3, [pc, #132]	; (80003e8 <GPIO_PClkCtrl+0x124>)
 8000364:	695b      	ldr	r3, [r3, #20]
 8000366:	4a20      	ldr	r2, [pc, #128]	; (80003e8 <GPIO_PClkCtrl+0x124>)
 8000368:	f423 3300 	bic.w	r3, r3, #131072	; 0x20000
 800036c:	6153      	str	r3, [r2, #20]
}
 800036e:	e035      	b.n	80003dc <GPIO_PClkCtrl+0x118>
		else if(pGPIOx == GPIOB) 	{	GPIOB_CLK_DI();	}
 8000370:	687b      	ldr	r3, [r7, #4]
 8000372:	4a1e      	ldr	r2, [pc, #120]	; (80003ec <GPIO_PClkCtrl+0x128>)
 8000374:	4293      	cmp	r3, r2
 8000376:	d106      	bne.n	8000386 <GPIO_PClkCtrl+0xc2>
 8000378:	4b1b      	ldr	r3, [pc, #108]	; (80003e8 <GPIO_PClkCtrl+0x124>)
 800037a:	695b      	ldr	r3, [r3, #20]
 800037c:	4a1a      	ldr	r2, [pc, #104]	; (80003e8 <GPIO_PClkCtrl+0x124>)
 800037e:	f423 2380 	bic.w	r3, r3, #262144	; 0x40000
 8000382:	6153      	str	r3, [r2, #20]
}
 8000384:	e02a      	b.n	80003dc <GPIO_PClkCtrl+0x118>
		else if(pGPIOx == GPIOC) 	{	GPIOC_CLK_DI();	}
 8000386:	687b      	ldr	r3, [r7, #4]
 8000388:	4a19      	ldr	r2, [pc, #100]	; (80003f0 <GPIO_PClkCtrl+0x12c>)
 800038a:	4293      	cmp	r3, r2
 800038c:	d106      	bne.n	800039c <GPIO_PClkCtrl+0xd8>
 800038e:	4b16      	ldr	r3, [pc, #88]	; (80003e8 <GPIO_PClkCtrl+0x124>)
 8000390:	695b      	ldr	r3, [r3, #20]
 8000392:	4a15      	ldr	r2, [pc, #84]	; (80003e8 <GPIO_PClkCtrl+0x124>)
 8000394:	f423 2300 	bic.w	r3, r3, #524288	; 0x80000
 8000398:	6153      	str	r3, [r2, #20]
}
 800039a:	e01f      	b.n	80003dc <GPIO_PClkCtrl+0x118>
		else if(pGPIOx == GPIOD) 	{	GPIOD_CLK_DI();	}
 800039c:	687b      	ldr	r3, [r7, #4]
 800039e:	4a15      	ldr	r2, [pc, #84]	; (80003f4 <GPIO_PClkCtrl+0x130>)
 80003a0:	4293      	cmp	r3, r2
 80003a2:	d106      	bne.n	80003b2 <GPIO_PClkCtrl+0xee>
 80003a4:	4b10      	ldr	r3, [pc, #64]	; (80003e8 <GPIO_PClkCtrl+0x124>)
 80003a6:	695b      	ldr	r3, [r3, #20]
 80003a8:	4a0f      	ldr	r2, [pc, #60]	; (80003e8 <GPIO_PClkCtrl+0x124>)
 80003aa:	f423 1380 	bic.w	r3, r3, #1048576	; 0x100000
 80003ae:	6153      	str	r3, [r2, #20]
}
 80003b0:	e014      	b.n	80003dc <GPIO_PClkCtrl+0x118>
		else if(pGPIOx == GPIOE) 	{	GPIOE_CLK_DI();	}
 80003b2:	687b      	ldr	r3, [r7, #4]
 80003b4:	4a10      	ldr	r2, [pc, #64]	; (80003f8 <GPIO_PClkCtrl+0x134>)
 80003b6:	4293      	cmp	r3, r2
 80003b8:	d106      	bne.n	80003c8 <GPIO_PClkCtrl+0x104>
 80003ba:	4b0b      	ldr	r3, [pc, #44]	; (80003e8 <GPIO_PClkCtrl+0x124>)
 80003bc:	695b      	ldr	r3, [r3, #20]
 80003be:	4a0a      	ldr	r2, [pc, #40]	; (80003e8 <GPIO_PClkCtrl+0x124>)
 80003c0:	f423 1300 	bic.w	r3, r3, #2097152	; 0x200000
 80003c4:	6153      	str	r3, [r2, #20]
}
 80003c6:	e009      	b.n	80003dc <GPIO_PClkCtrl+0x118>
		else if(pGPIOx == GPIOF) 	{	GPIOF_CLK_DI();	}
 80003c8:	687b      	ldr	r3, [r7, #4]
 80003ca:	4a0c      	ldr	r2, [pc, #48]	; (80003fc <GPIO_PClkCtrl+0x138>)
 80003cc:	4293      	cmp	r3, r2
 80003ce:	d105      	bne.n	80003dc <GPIO_PClkCtrl+0x118>
 80003d0:	4b05      	ldr	r3, [pc, #20]	; (80003e8 <GPIO_PClkCtrl+0x124>)
 80003d2:	695b      	ldr	r3, [r3, #20]
 80003d4:	4a04      	ldr	r2, [pc, #16]	; (80003e8 <GPIO_PClkCtrl+0x124>)
 80003d6:	f423 0380 	bic.w	r3, r3, #4194304	; 0x400000
 80003da:	6153      	str	r3, [r2, #20]
}
 80003dc:	bf00      	nop
 80003de:	370c      	adds	r7, #12
 80003e0:	46bd      	mov	sp, r7
 80003e2:	bc80      	pop	{r7}
 80003e4:	4770      	bx	lr
 80003e6:	bf00      	nop
 80003e8:	40021000 	.word	0x40021000
 80003ec:	48000400 	.word	0x48000400
 80003f0:	48000800 	.word	0x48000800
 80003f4:	48000c00 	.word	0x48000c00
 80003f8:	48001000 	.word	0x48001000
 80003fc:	48001400 	.word	0x48001400

08000400 <GPIO_Init>:
 * @return 			- none
 *
 * @Note			- none
 */
void GPIO_Init(GPIO_Handle_t *pGPIOHandle)
{
 8000400:	b480      	push	{r7}
 8000402:	b087      	sub	sp, #28
 8000404:	af00      	add	r7, sp, #0
 8000406:	6078      	str	r0, [r7, #4]
	uint32_t temp = 0;
 8000408:	2300      	movs	r3, #0
 800040a:	617b      	str	r3, [r7, #20]
	//1. Configure mode of port
	if (pGPIOHandle->GPIO_PinConfig.GPIO_PinMode <= GPIO_MODE_ANALOG)
 800040c:	687b      	ldr	r3, [r7, #4]
 800040e:	795b      	ldrb	r3, [r3, #5]
 8000410:	2b03      	cmp	r3, #3
 8000412:	d821      	bhi.n	8000458 <GPIO_Init+0x58>
	{
		temp = (pGPIOHandle->GPIO_PinConfig.GPIO_PinMode << (2 * pGPIOHandle->GPIO_PinConfig.GPIO_PinNumber));
 8000414:	687b      	ldr	r3, [r7, #4]
 8000416:	795b      	ldrb	r3, [r3, #5]
 8000418:	461a      	mov	r2, r3
 800041a:	687b      	ldr	r3, [r7, #4]
 800041c:	791b      	ldrb	r3, [r3, #4]
 800041e:	005b      	lsls	r3, r3, #1
 8000420:	fa02 f303 	lsl.w	r3, r2, r3
 8000424:	617b      	str	r3, [r7, #20]
		pGPIOHandle->pGPIOx->GPIOx_MODER &= ~(0x3 << pGPIOHandle->GPIO_PinConfig.GPIO_PinNumber);//clear
 8000426:	687b      	ldr	r3, [r7, #4]
 8000428:	681b      	ldr	r3, [r3, #0]
 800042a:	681a      	ldr	r2, [r3, #0]
 800042c:	687b      	ldr	r3, [r7, #4]
 800042e:	791b      	ldrb	r3, [r3, #4]
 8000430:	4619      	mov	r1, r3
 8000432:	2303      	movs	r3, #3
 8000434:	408b      	lsls	r3, r1
 8000436:	43db      	mvns	r3, r3
 8000438:	4619      	mov	r1, r3
 800043a:	687b      	ldr	r3, [r7, #4]
 800043c:	681b      	ldr	r3, [r3, #0]
 800043e:	400a      	ands	r2, r1
 8000440:	601a      	str	r2, [r3, #0]
		pGPIOHandle->pGPIOx->GPIOx_MODER |= temp;//To set always use bitwise OR rather than equating a variable
 8000442:	687b      	ldr	r3, [r7, #4]
 8000444:	681b      	ldr	r3, [r3, #0]
 8000446:	6819      	ldr	r1, [r3, #0]
 8000448:	687b      	ldr	r3, [r7, #4]
 800044a:	681b      	ldr	r3, [r3, #0]
 800044c:	697a      	ldr	r2, [r7, #20]
 800044e:	430a      	orrs	r2, r1
 8000450:	601a      	str	r2, [r3, #0]
		temp = 0;
 8000452:	2300      	movs	r3, #0
 8000454:	617b      	str	r3, [r7, #20]
 8000456:	e0a1      	b.n	800059c <GPIO_Init+0x19c>
	}
	else
	{
		if (pGPIOHandle->GPIO_PinConfig.GPIO_PinMode == GPIO_MODE_INTRUPT_FALL)
 8000458:	687b      	ldr	r3, [r7, #4]
 800045a:	795b      	ldrb	r3, [r3, #5]
 800045c:	2b04      	cmp	r3, #4
 800045e:	d117      	bne.n	8000490 <GPIO_Init+0x90>
		{
			// Configure FTSR (Falling Trigger Selection Register)
			EXTI->EXTI_FTSR1 &= ~(1 << pGPIOHandle->GPIO_PinConfig.GPIO_PinNumber);
 8000460:	4b9e      	ldr	r3, [pc, #632]	; (80006dc <GPIO_Init+0x2dc>)
 8000462:	68db      	ldr	r3, [r3, #12]
 8000464:	687a      	ldr	r2, [r7, #4]
 8000466:	7912      	ldrb	r2, [r2, #4]
 8000468:	4611      	mov	r1, r2
 800046a:	2201      	movs	r2, #1
 800046c:	408a      	lsls	r2, r1
 800046e:	43d2      	mvns	r2, r2
 8000470:	4611      	mov	r1, r2
 8000472:	4a9a      	ldr	r2, [pc, #616]	; (80006dc <GPIO_Init+0x2dc>)
 8000474:	400b      	ands	r3, r1
 8000476:	60d3      	str	r3, [r2, #12]
			EXTI->EXTI_FTSR1 |= (1 << pGPIOHandle->GPIO_PinConfig.GPIO_PinNumber);
 8000478:	4b98      	ldr	r3, [pc, #608]	; (80006dc <GPIO_Init+0x2dc>)
 800047a:	68db      	ldr	r3, [r3, #12]
 800047c:	687a      	ldr	r2, [r7, #4]
 800047e:	7912      	ldrb	r2, [r2, #4]
 8000480:	4611      	mov	r1, r2
 8000482:	2201      	movs	r2, #1
 8000484:	408a      	lsls	r2, r1
 8000486:	4611      	mov	r1, r2
 8000488:	4a94      	ldr	r2, [pc, #592]	; (80006dc <GPIO_Init+0x2dc>)
 800048a:	430b      	orrs	r3, r1
 800048c:	60d3      	str	r3, [r2, #12]
 800048e:	e035      	b.n	80004fc <GPIO_Init+0xfc>
		}
		else if (pGPIOHandle->GPIO_PinConfig.GPIO_PinMode == GPIO_MODE_INTRUPT_RISE)
 8000490:	687b      	ldr	r3, [r7, #4]
 8000492:	795b      	ldrb	r3, [r3, #5]
 8000494:	2b05      	cmp	r3, #5
 8000496:	d117      	bne.n	80004c8 <GPIO_Init+0xc8>
		{
			// Configure RTSR (Rising Trigger Selection Register)
			EXTI->EXTI_RTSR1 &= ~(1 << pGPIOHandle->GPIO_PinConfig.GPIO_PinNumber);
 8000498:	4b90      	ldr	r3, [pc, #576]	; (80006dc <GPIO_Init+0x2dc>)
 800049a:	689b      	ldr	r3, [r3, #8]
 800049c:	687a      	ldr	r2, [r7, #4]
 800049e:	7912      	ldrb	r2, [r2, #4]
 80004a0:	4611      	mov	r1, r2
 80004a2:	2201      	movs	r2, #1
 80004a4:	408a      	lsls	r2, r1
 80004a6:	43d2      	mvns	r2, r2
 80004a8:	4611      	mov	r1, r2
 80004aa:	4a8c      	ldr	r2, [pc, #560]	; (80006dc <GPIO_Init+0x2dc>)
 80004ac:	400b      	ands	r3, r1
 80004ae:	6093      	str	r3, [r2, #8]
			EXTI->EXTI_RTSR1 |= (1 << pGPIOHandle->GPIO_PinConfig.GPIO_PinNumber);
 80004b0:	4b8a      	ldr	r3, [pc, #552]	; (80006dc <GPIO_Init+0x2dc>)
 80004b2:	689b      	ldr	r3, [r3, #8]
 80004b4:	687a      	ldr	r2, [r7, #4]
 80004b6:	7912      	ldrb	r2, [r2, #4]
 80004b8:	4611      	mov	r1, r2
 80004ba:	2201      	movs	r2, #1
 80004bc:	408a      	lsls	r2, r1
 80004be:	4611      	mov	r1, r2
 80004c0:	4a86      	ldr	r2, [pc, #536]	; (80006dc <GPIO_Init+0x2dc>)
 80004c2:	430b      	orrs	r3, r1
 80004c4:	6093      	str	r3, [r2, #8]
 80004c6:	e019      	b.n	80004fc <GPIO_Init+0xfc>
		}
		else if (pGPIOHandle->GPIO_PinConfig.GPIO_PinMode == GPIO_MODE_INTRUPT_RISE_FALL)
 80004c8:	687b      	ldr	r3, [r7, #4]
 80004ca:	795b      	ldrb	r3, [r3, #5]
 80004cc:	2b06      	cmp	r3, #6
 80004ce:	d115      	bne.n	80004fc <GPIO_Init+0xfc>
		{
			//configure both FTSR and RTSR
			EXTI->EXTI_RTSR1 |= (1 << pGPIOHandle->GPIO_PinConfig.GPIO_PinNumber);
 80004d0:	4b82      	ldr	r3, [pc, #520]	; (80006dc <GPIO_Init+0x2dc>)
 80004d2:	689b      	ldr	r3, [r3, #8]
 80004d4:	687a      	ldr	r2, [r7, #4]
 80004d6:	7912      	ldrb	r2, [r2, #4]
 80004d8:	4611      	mov	r1, r2
 80004da:	2201      	movs	r2, #1
 80004dc:	408a      	lsls	r2, r1
 80004de:	4611      	mov	r1, r2
 80004e0:	4a7e      	ldr	r2, [pc, #504]	; (80006dc <GPIO_Init+0x2dc>)
 80004e2:	430b      	orrs	r3, r1
 80004e4:	6093      	str	r3, [r2, #8]
			EXTI->EXTI_FTSR1 |= (1 << pGPIOHandle->GPIO_PinConfig.GPIO_PinNumber);
 80004e6:	4b7d      	ldr	r3, [pc, #500]	; (80006dc <GPIO_Init+0x2dc>)
 80004e8:	68db      	ldr	r3, [r3, #12]
 80004ea:	687a      	ldr	r2, [r7, #4]
 80004ec:	7912      	ldrb	r2, [r2, #4]
 80004ee:	4611      	mov	r1, r2
 80004f0:	2201      	movs	r2, #1
 80004f2:	408a      	lsls	r2, r1
 80004f4:	4611      	mov	r1, r2
 80004f6:	4a79      	ldr	r2, [pc, #484]	; (80006dc <GPIO_Init+0x2dc>)
 80004f8:	430b      	orrs	r3, r1
 80004fa:	60d3      	str	r3, [r2, #12]
		}
		// Configure GPIO port selection in SYSCFG_EXTICR
		uint8_t temp1 = pGPIOHandle->GPIO_PinConfig.GPIO_PinNumber / 4;
 80004fc:	687b      	ldr	r3, [r7, #4]
 80004fe:	791b      	ldrb	r3, [r3, #4]
 8000500:	089b      	lsrs	r3, r3, #2
 8000502:	74fb      	strb	r3, [r7, #19]
		uint8_t temp2 = pGPIOHandle->GPIO_PinConfig.GPIO_PinNumber % 4;
 8000504:	687b      	ldr	r3, [r7, #4]
 8000506:	791b      	ldrb	r3, [r3, #4]
 8000508:	f003 0303 	and.w	r3, r3, #3
 800050c:	74bb      	strb	r3, [r7, #18]
		uint8_t portcode = GPIO_BASEADDR_TO_CODE(pGPIOHandle->pGPIOx);
 800050e:	687b      	ldr	r3, [r7, #4]
 8000510:	681b      	ldr	r3, [r3, #0]
 8000512:	f1b3 4f90 	cmp.w	r3, #1207959552	; 0x48000000
 8000516:	d024      	beq.n	8000562 <GPIO_Init+0x162>
 8000518:	687b      	ldr	r3, [r7, #4]
 800051a:	681b      	ldr	r3, [r3, #0]
 800051c:	4a70      	ldr	r2, [pc, #448]	; (80006e0 <GPIO_Init+0x2e0>)
 800051e:	4293      	cmp	r3, r2
 8000520:	d01d      	beq.n	800055e <GPIO_Init+0x15e>
 8000522:	687b      	ldr	r3, [r7, #4]
 8000524:	681b      	ldr	r3, [r3, #0]
 8000526:	4a6f      	ldr	r2, [pc, #444]	; (80006e4 <GPIO_Init+0x2e4>)
 8000528:	4293      	cmp	r3, r2
 800052a:	d016      	beq.n	800055a <GPIO_Init+0x15a>
 800052c:	687b      	ldr	r3, [r7, #4]
 800052e:	681b      	ldr	r3, [r3, #0]
 8000530:	4a6d      	ldr	r2, [pc, #436]	; (80006e8 <GPIO_Init+0x2e8>)
 8000532:	4293      	cmp	r3, r2
 8000534:	d00f      	beq.n	8000556 <GPIO_Init+0x156>
 8000536:	687b      	ldr	r3, [r7, #4]
 8000538:	681b      	ldr	r3, [r3, #0]
 800053a:	4a6c      	ldr	r2, [pc, #432]	; (80006ec <GPIO_Init+0x2ec>)
 800053c:	4293      	cmp	r3, r2
 800053e:	d008      	beq.n	8000552 <GPIO_Init+0x152>
 8000540:	687b      	ldr	r3, [r7, #4]
 8000542:	681b      	ldr	r3, [r3, #0]
 8000544:	4a6a      	ldr	r2, [pc, #424]	; (80006f0 <GPIO_Init+0x2f0>)
 8000546:	4293      	cmp	r3, r2
 8000548:	d101      	bne.n	800054e <GPIO_Init+0x14e>
 800054a:	2305      	movs	r3, #5
 800054c:	e00a      	b.n	8000564 <GPIO_Init+0x164>
 800054e:	2300      	movs	r3, #0
 8000550:	e008      	b.n	8000564 <GPIO_Init+0x164>
 8000552:	2304      	movs	r3, #4
 8000554:	e006      	b.n	8000564 <GPIO_Init+0x164>
 8000556:	2303      	movs	r3, #3
 8000558:	e004      	b.n	8000564 <GPIO_Init+0x164>
 800055a:	2302      	movs	r3, #2
 800055c:	e002      	b.n	8000564 <GPIO_Init+0x164>
 800055e:	2301      	movs	r3, #1
 8000560:	e000      	b.n	8000564 <GPIO_Init+0x164>
 8000562:	2300      	movs	r3, #0
 8000564:	747b      	strb	r3, [r7, #17]
		SYSCFG_PCLCK_EN();
 8000566:	4b63      	ldr	r3, [pc, #396]	; (80006f4 <GPIO_Init+0x2f4>)
 8000568:	699b      	ldr	r3, [r3, #24]
 800056a:	4a62      	ldr	r2, [pc, #392]	; (80006f4 <GPIO_Init+0x2f4>)
 800056c:	f043 0301 	orr.w	r3, r3, #1
 8000570:	6193      	str	r3, [r2, #24]
		SYSCFG->SYSCFG_EXTICR[temp1] = (portcode << (temp2 * 4));
 8000572:	7c7a      	ldrb	r2, [r7, #17]
 8000574:	7cbb      	ldrb	r3, [r7, #18]
 8000576:	009b      	lsls	r3, r3, #2
 8000578:	fa02 f103 	lsl.w	r1, r2, r3
 800057c:	4a5e      	ldr	r2, [pc, #376]	; (80006f8 <GPIO_Init+0x2f8>)
 800057e:	7cfb      	ldrb	r3, [r7, #19]
 8000580:	3302      	adds	r3, #2
 8000582:	f842 1023 	str.w	r1, [r2, r3, lsl #2]

		// Enable EXTI interrupt delivery using IMR
		EXTI->EXTI_IMR1 |= 1 << pGPIOHandle->GPIO_PinConfig.GPIO_PinNumber;
 8000586:	4b55      	ldr	r3, [pc, #340]	; (80006dc <GPIO_Init+0x2dc>)
 8000588:	681b      	ldr	r3, [r3, #0]
 800058a:	687a      	ldr	r2, [r7, #4]
 800058c:	7912      	ldrb	r2, [r2, #4]
 800058e:	4611      	mov	r1, r2
 8000590:	2201      	movs	r2, #1
 8000592:	408a      	lsls	r2, r1
 8000594:	4611      	mov	r1, r2
 8000596:	4a51      	ldr	r2, [pc, #324]	; (80006dc <GPIO_Init+0x2dc>)
 8000598:	430b      	orrs	r3, r1
 800059a:	6013      	str	r3, [r2, #0]
	}
	//2. Configure speed of port
	temp = (pGPIOHandle->GPIO_PinConfig.GPIO_PinOutSpeed << (2 * pGPIOHandle->GPIO_PinConfig.GPIO_PinNumber));
 800059c:	687b      	ldr	r3, [r7, #4]
 800059e:	79db      	ldrb	r3, [r3, #7]
 80005a0:	461a      	mov	r2, r3
 80005a2:	687b      	ldr	r3, [r7, #4]
 80005a4:	791b      	ldrb	r3, [r3, #4]
 80005a6:	005b      	lsls	r3, r3, #1
 80005a8:	fa02 f303 	lsl.w	r3, r2, r3
 80005ac:	617b      	str	r3, [r7, #20]
	pGPIOHandle->pGPIOx->GPIOx_OSPEEDR &= ~(0x3 << pGPIOHandle->GPIO_PinConfig.GPIO_PinNumber);
 80005ae:	687b      	ldr	r3, [r7, #4]
 80005b0:	681b      	ldr	r3, [r3, #0]
 80005b2:	689a      	ldr	r2, [r3, #8]
 80005b4:	687b      	ldr	r3, [r7, #4]
 80005b6:	791b      	ldrb	r3, [r3, #4]
 80005b8:	4619      	mov	r1, r3
 80005ba:	2303      	movs	r3, #3
 80005bc:	408b      	lsls	r3, r1
 80005be:	43db      	mvns	r3, r3
 80005c0:	4619      	mov	r1, r3
 80005c2:	687b      	ldr	r3, [r7, #4]
 80005c4:	681b      	ldr	r3, [r3, #0]
 80005c6:	400a      	ands	r2, r1
 80005c8:	609a      	str	r2, [r3, #8]
	pGPIOHandle->pGPIOx->GPIOx_OSPEEDR |= temp;
 80005ca:	687b      	ldr	r3, [r7, #4]
 80005cc:	681b      	ldr	r3, [r3, #0]
 80005ce:	6899      	ldr	r1, [r3, #8]
 80005d0:	687b      	ldr	r3, [r7, #4]
 80005d2:	681b      	ldr	r3, [r3, #0]
 80005d4:	697a      	ldr	r2, [r7, #20]
 80005d6:	430a      	orrs	r2, r1
 80005d8:	609a      	str	r2, [r3, #8]
	temp = 0;
 80005da:	2300      	movs	r3, #0
 80005dc:	617b      	str	r3, [r7, #20]

	//3. Configure pull up down settings
	temp = (pGPIOHandle->GPIO_PinConfig.GPIO_PinPuPd << (2 * pGPIOHandle->GPIO_PinConfig.GPIO_PinNumber));
 80005de:	687b      	ldr	r3, [r7, #4]
 80005e0:	7a1b      	ldrb	r3, [r3, #8]
 80005e2:	461a      	mov	r2, r3
 80005e4:	687b      	ldr	r3, [r7, #4]
 80005e6:	791b      	ldrb	r3, [r3, #4]
 80005e8:	005b      	lsls	r3, r3, #1
 80005ea:	fa02 f303 	lsl.w	r3, r2, r3
 80005ee:	617b      	str	r3, [r7, #20]
	pGPIOHandle->GPIO_PinConfig.GPIO_PinPuPd &= ~(0x3 << pGPIOHandle->GPIO_PinConfig.GPIO_PinNumber);
 80005f0:	687b      	ldr	r3, [r7, #4]
 80005f2:	7a1b      	ldrb	r3, [r3, #8]
 80005f4:	b25a      	sxtb	r2, r3
 80005f6:	687b      	ldr	r3, [r7, #4]
 80005f8:	791b      	ldrb	r3, [r3, #4]
 80005fa:	4619      	mov	r1, r3
 80005fc:	2303      	movs	r3, #3
 80005fe:	408b      	lsls	r3, r1
 8000600:	b25b      	sxtb	r3, r3
 8000602:	43db      	mvns	r3, r3
 8000604:	b25b      	sxtb	r3, r3
 8000606:	4013      	ands	r3, r2
 8000608:	b25b      	sxtb	r3, r3
 800060a:	b2da      	uxtb	r2, r3
 800060c:	687b      	ldr	r3, [r7, #4]
 800060e:	721a      	strb	r2, [r3, #8]
	pGPIOHandle->GPIO_PinConfig.GPIO_PinPuPd |= temp;
 8000610:	687b      	ldr	r3, [r7, #4]
 8000612:	7a1a      	ldrb	r2, [r3, #8]
 8000614:	697b      	ldr	r3, [r7, #20]
 8000616:	b2db      	uxtb	r3, r3
 8000618:	4313      	orrs	r3, r2
 800061a:	b2da      	uxtb	r2, r3
 800061c:	687b      	ldr	r3, [r7, #4]
 800061e:	721a      	strb	r2, [r3, #8]
	temp = 0;
 8000620:	2300      	movs	r3, #0
 8000622:	617b      	str	r3, [r7, #20]

	//4. Configure output type of GPIO
	temp = (pGPIOHandle->GPIO_PinConfig.GPIO_PinOutType << (pGPIOHandle->GPIO_PinConfig.GPIO_PinNumber));
 8000624:	687b      	ldr	r3, [r7, #4]
 8000626:	799b      	ldrb	r3, [r3, #6]
 8000628:	461a      	mov	r2, r3
 800062a:	687b      	ldr	r3, [r7, #4]
 800062c:	791b      	ldrb	r3, [r3, #4]
 800062e:	fa02 f303 	lsl.w	r3, r2, r3
 8000632:	617b      	str	r3, [r7, #20]
	pGPIOHandle->pGPIOx->GPIOx_OTYPER &= ~(0x1 << pGPIOHandle->GPIO_PinConfig.GPIO_PinNumber);
 8000634:	687b      	ldr	r3, [r7, #4]
 8000636:	681b      	ldr	r3, [r3, #0]
 8000638:	685a      	ldr	r2, [r3, #4]
 800063a:	687b      	ldr	r3, [r7, #4]
 800063c:	791b      	ldrb	r3, [r3, #4]
 800063e:	4619      	mov	r1, r3
 8000640:	2301      	movs	r3, #1
 8000642:	408b      	lsls	r3, r1
 8000644:	43db      	mvns	r3, r3
 8000646:	4619      	mov	r1, r3
 8000648:	687b      	ldr	r3, [r7, #4]
 800064a:	681b      	ldr	r3, [r3, #0]
 800064c:	400a      	ands	r2, r1
 800064e:	605a      	str	r2, [r3, #4]
	pGPIOHandle->pGPIOx->GPIOx_OTYPER |= temp;
 8000650:	687b      	ldr	r3, [r7, #4]
 8000652:	681b      	ldr	r3, [r3, #0]
 8000654:	6859      	ldr	r1, [r3, #4]
 8000656:	687b      	ldr	r3, [r7, #4]
 8000658:	681b      	ldr	r3, [r3, #0]
 800065a:	697a      	ldr	r2, [r7, #20]
 800065c:	430a      	orrs	r2, r1
 800065e:	605a      	str	r2, [r3, #4]
	temp = 0;
 8000660:	2300      	movs	r3, #0
 8000662:	617b      	str	r3, [r7, #20]

	//5. Configure alternate function only if Pin Mode is alternate
	if (pGPIOHandle->GPIO_PinConfig.GPIO_PinMode == GPIO_MODE_ALT_FN)
 8000664:	687b      	ldr	r3, [r7, #4]
 8000666:	795b      	ldrb	r3, [r3, #5]
 8000668:	2b02      	cmp	r3, #2
 800066a:	d131      	bne.n	80006d0 <GPIO_Init+0x2d0>
	{
		uint8_t temp1,temp2;
		temp1 = (pGPIOHandle->GPIO_PinConfig.GPIO_PinNumber / 8);//To get array index
 800066c:	687b      	ldr	r3, [r7, #4]
 800066e:	791b      	ldrb	r3, [r3, #4]
 8000670:	08db      	lsrs	r3, r3, #3
 8000672:	743b      	strb	r3, [r7, #16]
		temp2 = (pGPIOHandle->GPIO_PinConfig.GPIO_PinNumber % 8);//To get shift position
 8000674:	687b      	ldr	r3, [r7, #4]
 8000676:	791b      	ldrb	r3, [r3, #4]
 8000678:	f003 0307 	and.w	r3, r3, #7
 800067c:	73fb      	strb	r3, [r7, #15]
		pGPIOHandle->pGPIOx->GPIOx_AFR[temp1] &= ~(0xF << (4 * temp2));
 800067e:	687b      	ldr	r3, [r7, #4]
 8000680:	681b      	ldr	r3, [r3, #0]
 8000682:	7c3a      	ldrb	r2, [r7, #16]
 8000684:	3208      	adds	r2, #8
 8000686:	f853 1022 	ldr.w	r1, [r3, r2, lsl #2]
 800068a:	7bfb      	ldrb	r3, [r7, #15]
 800068c:	009b      	lsls	r3, r3, #2
 800068e:	220f      	movs	r2, #15
 8000690:	fa02 f303 	lsl.w	r3, r2, r3
 8000694:	43db      	mvns	r3, r3
 8000696:	4618      	mov	r0, r3
 8000698:	687b      	ldr	r3, [r7, #4]
 800069a:	681b      	ldr	r3, [r3, #0]
 800069c:	7c3a      	ldrb	r2, [r7, #16]
 800069e:	4001      	ands	r1, r0
 80006a0:	3208      	adds	r2, #8
 80006a2:	f843 1022 	str.w	r1, [r3, r2, lsl #2]
		pGPIOHandle->pGPIOx->GPIOx_AFR[temp1] |= (pGPIOHandle->GPIO_PinConfig.GPIO_PinAltFn << (4 * temp2));
 80006a6:	687b      	ldr	r3, [r7, #4]
 80006a8:	681b      	ldr	r3, [r3, #0]
 80006aa:	7c3a      	ldrb	r2, [r7, #16]
 80006ac:	3208      	adds	r2, #8
 80006ae:	f853 1022 	ldr.w	r1, [r3, r2, lsl #2]
 80006b2:	687b      	ldr	r3, [r7, #4]
 80006b4:	7a5b      	ldrb	r3, [r3, #9]
 80006b6:	461a      	mov	r2, r3
 80006b8:	7bfb      	ldrb	r3, [r7, #15]
 80006ba:	009b      	lsls	r3, r3, #2
 80006bc:	fa02 f303 	lsl.w	r3, r2, r3
 80006c0:	4618      	mov	r0, r3
 80006c2:	687b      	ldr	r3, [r7, #4]
 80006c4:	681b      	ldr	r3, [r3, #0]
 80006c6:	7c3a      	ldrb	r2, [r7, #16]
 80006c8:	4301      	orrs	r1, r0
 80006ca:	3208      	adds	r2, #8
 80006cc:	f843 1022 	str.w	r1, [r3, r2, lsl #2]
	}
}
 80006d0:	bf00      	nop
 80006d2:	371c      	adds	r7, #28
 80006d4:	46bd      	mov	sp, r7
 80006d6:	bc80      	pop	{r7}
 80006d8:	4770      	bx	lr
 80006da:	bf00      	nop
 80006dc:	40010400 	.word	0x40010400
 80006e0:	48000400 	.word	0x48000400
 80006e4:	48000800 	.word	0x48000800
 80006e8:	48000c00 	.word	0x48000c00
 80006ec:	48001000 	.word	0x48001000
 80006f0:	48001400 	.word	0x48001400
 80006f4:	40021000 	.word	0x40021000
 80006f8:	40010000 	.word	0x40010000

080006fc <GPIO_ToggleOpPin>:
 * @return 			- none
 *
 * @Note			- none
 */
void GPIO_ToggleOpPin(GPIO_RegDef_t *pGPIOx, uint8_t PinNumber)
{
 80006fc:	b480      	push	{r7}
 80006fe:	b083      	sub	sp, #12
 8000700:	af00      	add	r7, sp, #0
 8000702:	6078      	str	r0, [r7, #4]
 8000704:	460b      	mov	r3, r1
 8000706:	70fb      	strb	r3, [r7, #3]
	pGPIOx->GPIOx_ODR ^= (1 << PinNumber);
 8000708:	687b      	ldr	r3, [r7, #4]
 800070a:	695b      	ldr	r3, [r3, #20]
 800070c:	78fa      	ldrb	r2, [r7, #3]
 800070e:	2101      	movs	r1, #1
 8000710:	fa01 f202 	lsl.w	r2, r1, r2
 8000714:	405a      	eors	r2, r3
 8000716:	687b      	ldr	r3, [r7, #4]
 8000718:	615a      	str	r2, [r3, #20]
}
 800071a:	bf00      	nop
 800071c:	370c      	adds	r7, #12
 800071e:	46bd      	mov	sp, r7
 8000720:	bc80      	pop	{r7}
 8000722:	4770      	bx	lr

08000724 <GPIO_IRQConfig>:
 * @return 			- none
 *
 * @Note			- none
 */
void GPIO_IRQConfig(uint8_t IRQNumber, uint8_t E_D)
{
 8000724:	b480      	push	{r7}
 8000726:	b083      	sub	sp, #12
 8000728:	af00      	add	r7, sp, #0
 800072a:	4603      	mov	r3, r0
 800072c:	460a      	mov	r2, r1
 800072e:	71fb      	strb	r3, [r7, #7]
 8000730:	4613      	mov	r3, r2
 8000732:	71bb      	strb	r3, [r7, #6]
	if (E_D == ENABLE)
 8000734:	79bb      	ldrb	r3, [r7, #6]
 8000736:	2b01      	cmp	r3, #1
 8000738:	d133      	bne.n	80007a2 <GPIO_IRQConfig+0x7e>
	{
		if (IRQNumber <= 31)
 800073a:	79fb      	ldrb	r3, [r7, #7]
 800073c:	2b1f      	cmp	r3, #31
 800073e:	d80a      	bhi.n	8000756 <GPIO_IRQConfig+0x32>
		{
			//Program ISER0 register
			*NVIC_ISER0 |= (1 << IRQNumber);
 8000740:	4b34      	ldr	r3, [pc, #208]	; (8000814 <GPIO_IRQConfig+0xf0>)
 8000742:	681b      	ldr	r3, [r3, #0]
 8000744:	79fa      	ldrb	r2, [r7, #7]
 8000746:	2101      	movs	r1, #1
 8000748:	fa01 f202 	lsl.w	r2, r1, r2
 800074c:	4611      	mov	r1, r2
 800074e:	4a31      	ldr	r2, [pc, #196]	; (8000814 <GPIO_IRQConfig+0xf0>)
 8000750:	430b      	orrs	r3, r1
 8000752:	6013      	str	r3, [r2, #0]
		{
			//program ICER2 register
			*NVIC_ICER2 |= (1 << (IRQNumber%64));
		}
	}
}
 8000754:	e059      	b.n	800080a <GPIO_IRQConfig+0xe6>
		else if (IRQNumber > 31 && IRQNumber <= 64)
 8000756:	79fb      	ldrb	r3, [r7, #7]
 8000758:	2b1f      	cmp	r3, #31
 800075a:	d90f      	bls.n	800077c <GPIO_IRQConfig+0x58>
 800075c:	79fb      	ldrb	r3, [r7, #7]
 800075e:	2b40      	cmp	r3, #64	; 0x40
 8000760:	d80c      	bhi.n	800077c <GPIO_IRQConfig+0x58>
			*NVIC_ISER1 |= (1 << (IRQNumber%32));
 8000762:	4b2d      	ldr	r3, [pc, #180]	; (8000818 <GPIO_IRQConfig+0xf4>)
 8000764:	681b      	ldr	r3, [r3, #0]
 8000766:	79fa      	ldrb	r2, [r7, #7]
 8000768:	f002 021f 	and.w	r2, r2, #31
 800076c:	2101      	movs	r1, #1
 800076e:	fa01 f202 	lsl.w	r2, r1, r2
 8000772:	4611      	mov	r1, r2
 8000774:	4a28      	ldr	r2, [pc, #160]	; (8000818 <GPIO_IRQConfig+0xf4>)
 8000776:	430b      	orrs	r3, r1
 8000778:	6013      	str	r3, [r2, #0]
 800077a:	e046      	b.n	800080a <GPIO_IRQConfig+0xe6>
		else if (IRQNumber > 64 && IRQNumber <= 96)
 800077c:	79fb      	ldrb	r3, [r7, #7]
 800077e:	2b40      	cmp	r3, #64	; 0x40
 8000780:	d943      	bls.n	800080a <GPIO_IRQConfig+0xe6>
 8000782:	79fb      	ldrb	r3, [r7, #7]
 8000784:	2b60      	cmp	r3, #96	; 0x60
 8000786:	d840      	bhi.n	800080a <GPIO_IRQConfig+0xe6>
			*NVIC_ISER2 |= (1 << (IRQNumber%64));
 8000788:	4b24      	ldr	r3, [pc, #144]	; (800081c <GPIO_IRQConfig+0xf8>)
 800078a:	681b      	ldr	r3, [r3, #0]
 800078c:	79fa      	ldrb	r2, [r7, #7]
 800078e:	f002 023f 	and.w	r2, r2, #63	; 0x3f
 8000792:	2101      	movs	r1, #1
 8000794:	fa01 f202 	lsl.w	r2, r1, r2
 8000798:	4611      	mov	r1, r2
 800079a:	4a20      	ldr	r2, [pc, #128]	; (800081c <GPIO_IRQConfig+0xf8>)
 800079c:	430b      	orrs	r3, r1
 800079e:	6013      	str	r3, [r2, #0]
}
 80007a0:	e033      	b.n	800080a <GPIO_IRQConfig+0xe6>
		if (IRQNumber <= 31)
 80007a2:	79fb      	ldrb	r3, [r7, #7]
 80007a4:	2b1f      	cmp	r3, #31
 80007a6:	d80a      	bhi.n	80007be <GPIO_IRQConfig+0x9a>
			*NVIC_ICER0 |= (1 << IRQNumber);
 80007a8:	4b1d      	ldr	r3, [pc, #116]	; (8000820 <GPIO_IRQConfig+0xfc>)
 80007aa:	681b      	ldr	r3, [r3, #0]
 80007ac:	79fa      	ldrb	r2, [r7, #7]
 80007ae:	2101      	movs	r1, #1
 80007b0:	fa01 f202 	lsl.w	r2, r1, r2
 80007b4:	4611      	mov	r1, r2
 80007b6:	4a1a      	ldr	r2, [pc, #104]	; (8000820 <GPIO_IRQConfig+0xfc>)
 80007b8:	430b      	orrs	r3, r1
 80007ba:	6013      	str	r3, [r2, #0]
}
 80007bc:	e025      	b.n	800080a <GPIO_IRQConfig+0xe6>
			else if (IRQNumber > 31 && IRQNumber <= 64)
 80007be:	79fb      	ldrb	r3, [r7, #7]
 80007c0:	2b1f      	cmp	r3, #31
 80007c2:	d90f      	bls.n	80007e4 <GPIO_IRQConfig+0xc0>
 80007c4:	79fb      	ldrb	r3, [r7, #7]
 80007c6:	2b40      	cmp	r3, #64	; 0x40
 80007c8:	d80c      	bhi.n	80007e4 <GPIO_IRQConfig+0xc0>
			*NVIC_ICER1 |= (1 << (IRQNumber%32));
 80007ca:	4b16      	ldr	r3, [pc, #88]	; (8000824 <GPIO_IRQConfig+0x100>)
 80007cc:	681b      	ldr	r3, [r3, #0]
 80007ce:	79fa      	ldrb	r2, [r7, #7]
 80007d0:	f002 021f 	and.w	r2, r2, #31
 80007d4:	2101      	movs	r1, #1
 80007d6:	fa01 f202 	lsl.w	r2, r1, r2
 80007da:	4611      	mov	r1, r2
 80007dc:	4a11      	ldr	r2, [pc, #68]	; (8000824 <GPIO_IRQConfig+0x100>)
 80007de:	430b      	orrs	r3, r1
 80007e0:	6013      	str	r3, [r2, #0]
 80007e2:	e012      	b.n	800080a <GPIO_IRQConfig+0xe6>
			else if (IRQNumber > 64 && IRQNumber <= 96)
 80007e4:	79fb      	ldrb	r3, [r7, #7]
 80007e6:	2b40      	cmp	r3, #64	; 0x40
 80007e8:	d90f      	bls.n	800080a <GPIO_IRQConfig+0xe6>
 80007ea:	79fb      	ldrb	r3, [r7, #7]
 80007ec:	2b60      	cmp	r3, #96	; 0x60
 80007ee:	d80c      	bhi.n	800080a <GPIO_IRQConfig+0xe6>
			*NVIC_ICER2 |= (1 << (IRQNumber%64));
 80007f0:	4b0d      	ldr	r3, [pc, #52]	; (8000828 <GPIO_IRQConfig+0x104>)
 80007f2:	681b      	ldr	r3, [r3, #0]
 80007f4:	79fa      	ldrb	r2, [r7, #7]
 80007f6:	f002 023f 	and.w	r2, r2, #63	; 0x3f
 80007fa:	2101      	movs	r1, #1
 80007fc:	fa01 f202 	lsl.w	r2, r1, r2
 8000800:	4611      	mov	r1, r2
 8000802:	4a09      	ldr	r2, [pc, #36]	; (8000828 <GPIO_IRQConfig+0x104>)
 8000804:	430b      	orrs	r3, r1
 8000806:	6013      	str	r3, [r2, #0]
}
 8000808:	e7ff      	b.n	800080a <GPIO_IRQConfig+0xe6>
 800080a:	bf00      	nop
 800080c:	370c      	adds	r7, #12
 800080e:	46bd      	mov	sp, r7
 8000810:	bc80      	pop	{r7}
 8000812:	4770      	bx	lr
 8000814:	e000e100 	.word	0xe000e100
 8000818:	e000e104 	.word	0xe000e104
 800081c:	e000e108 	.word	0xe000e108
 8000820:	e000e180 	.word	0xe000e180
 8000824:	e000e184 	.word	0xe000e184
 8000828:	e000e188 	.word	0xe000e188

0800082c <GPIO_IRQPriorityConfig>:
 * @return 			- none
 *
 * @Note			- none
 */
void GPIO_IRQPriorityConfig(uint8_t IRQNumber, uint32_t IRQPriority)
{
 800082c:	b480      	push	{r7}
 800082e:	b085      	sub	sp, #20
 8000830:	af00      	add	r7, sp, #0
 8000832:	4603      	mov	r3, r0
 8000834:	6039      	str	r1, [r7, #0]
 8000836:	71fb      	strb	r3, [r7, #7]
	uint8_t iprx = IRQNumber / 4;
 8000838:	79fb      	ldrb	r3, [r7, #7]
 800083a:	089b      	lsrs	r3, r3, #2
 800083c:	73fb      	strb	r3, [r7, #15]
	uint8_t iprx_section = IRQNumber % 4;
 800083e:	79fb      	ldrb	r3, [r7, #7]
 8000840:	f003 0303 	and.w	r3, r3, #3
 8000844:	73bb      	strb	r3, [r7, #14]
	uint8_t shift_amount = (8 * iprx_section) + NO_PR_BITS_IMPLEMENTED;
 8000846:	7bbb      	ldrb	r3, [r7, #14]
 8000848:	00db      	lsls	r3, r3, #3
 800084a:	b2db      	uxtb	r3, r3
 800084c:	3304      	adds	r3, #4
 800084e:	737b      	strb	r3, [r7, #13]
	*(NVIC_IPR_BASEADDR+(iprx)) |= (IRQPriority << shift_amount);
 8000850:	7bfb      	ldrb	r3, [r7, #15]
 8000852:	009b      	lsls	r3, r3, #2
 8000854:	f103 4360 	add.w	r3, r3, #3758096384	; 0xe0000000
 8000858:	f503 4364 	add.w	r3, r3, #58368	; 0xe400
 800085c:	6819      	ldr	r1, [r3, #0]
 800085e:	7b7b      	ldrb	r3, [r7, #13]
 8000860:	683a      	ldr	r2, [r7, #0]
 8000862:	409a      	lsls	r2, r3
 8000864:	7bfb      	ldrb	r3, [r7, #15]
 8000866:	009b      	lsls	r3, r3, #2
 8000868:	f103 4360 	add.w	r3, r3, #3758096384	; 0xe0000000
 800086c:	f503 4364 	add.w	r3, r3, #58368	; 0xe400
 8000870:	430a      	orrs	r2, r1
 8000872:	601a      	str	r2, [r3, #0]
}
 8000874:	bf00      	nop
 8000876:	3714      	adds	r7, #20
 8000878:	46bd      	mov	sp, r7
 800087a:	bc80      	pop	{r7}
 800087c:	4770      	bx	lr
	...

08000880 <GPIO_IRQHandling>:
 * @return 			- none
 *
 * @Note			- none
 */
void GPIO_IRQHandling(uint8_t PinNumber)
{
 8000880:	b480      	push	{r7}
 8000882:	b083      	sub	sp, #12
 8000884:	af00      	add	r7, sp, #0
 8000886:	4603      	mov	r3, r0
 8000888:	71fb      	strb	r3, [r7, #7]
	//Clear EXTI PR register
	if(EXTI->EXTI_PR1 & (1 << PinNumber))
 800088a:	4b0c      	ldr	r3, [pc, #48]	; (80008bc <GPIO_IRQHandling+0x3c>)
 800088c:	695b      	ldr	r3, [r3, #20]
 800088e:	79fa      	ldrb	r2, [r7, #7]
 8000890:	2101      	movs	r1, #1
 8000892:	fa01 f202 	lsl.w	r2, r1, r2
 8000896:	4013      	ands	r3, r2
 8000898:	2b00      	cmp	r3, #0
 800089a:	d009      	beq.n	80008b0 <GPIO_IRQHandling+0x30>
	{
		EXTI->EXTI_PR1 |= (1 << PinNumber);
 800089c:	4b07      	ldr	r3, [pc, #28]	; (80008bc <GPIO_IRQHandling+0x3c>)
 800089e:	695b      	ldr	r3, [r3, #20]
 80008a0:	79fa      	ldrb	r2, [r7, #7]
 80008a2:	2101      	movs	r1, #1
 80008a4:	fa01 f202 	lsl.w	r2, r1, r2
 80008a8:	4611      	mov	r1, r2
 80008aa:	4a04      	ldr	r2, [pc, #16]	; (80008bc <GPIO_IRQHandling+0x3c>)
 80008ac:	430b      	orrs	r3, r1
 80008ae:	6153      	str	r3, [r2, #20]
	}
}
 80008b0:	bf00      	nop
 80008b2:	370c      	adds	r7, #12
 80008b4:	46bd      	mov	sp, r7
 80008b6:	bc80      	pop	{r7}
 80008b8:	4770      	bx	lr
 80008ba:	bf00      	nop
 80008bc:	40010400 	.word	0x40010400

080008c0 <memset>:
 80008c0:	4402      	add	r2, r0
 80008c2:	4603      	mov	r3, r0
 80008c4:	4293      	cmp	r3, r2
 80008c6:	d100      	bne.n	80008ca <memset+0xa>
 80008c8:	4770      	bx	lr
 80008ca:	f803 1b01 	strb.w	r1, [r3], #1
 80008ce:	e7f9      	b.n	80008c4 <memset+0x4>

080008d0 <__libc_init_array>:
 80008d0:	b570      	push	{r4, r5, r6, lr}
 80008d2:	4d0d      	ldr	r5, [pc, #52]	; (8000908 <__libc_init_array+0x38>)
 80008d4:	4c0d      	ldr	r4, [pc, #52]	; (800090c <__libc_init_array+0x3c>)
 80008d6:	1b64      	subs	r4, r4, r5
 80008d8:	10a4      	asrs	r4, r4, #2
 80008da:	2600      	movs	r6, #0
 80008dc:	42a6      	cmp	r6, r4
 80008de:	d109      	bne.n	80008f4 <__libc_init_array+0x24>
 80008e0:	4d0b      	ldr	r5, [pc, #44]	; (8000910 <__libc_init_array+0x40>)
 80008e2:	4c0c      	ldr	r4, [pc, #48]	; (8000914 <__libc_init_array+0x44>)
 80008e4:	f000 f818 	bl	8000918 <_init>
 80008e8:	1b64      	subs	r4, r4, r5
 80008ea:	10a4      	asrs	r4, r4, #2
 80008ec:	2600      	movs	r6, #0
 80008ee:	42a6      	cmp	r6, r4
 80008f0:	d105      	bne.n	80008fe <__libc_init_array+0x2e>
 80008f2:	bd70      	pop	{r4, r5, r6, pc}
 80008f4:	f855 3b04 	ldr.w	r3, [r5], #4
 80008f8:	4798      	blx	r3
 80008fa:	3601      	adds	r6, #1
 80008fc:	e7ee      	b.n	80008dc <__libc_init_array+0xc>
 80008fe:	f855 3b04 	ldr.w	r3, [r5], #4
 8000902:	4798      	blx	r3
 8000904:	3601      	adds	r6, #1
 8000906:	e7f2      	b.n	80008ee <__libc_init_array+0x1e>
 8000908:	08000930 	.word	0x08000930
 800090c:	08000930 	.word	0x08000930
 8000910:	08000930 	.word	0x08000930
 8000914:	08000934 	.word	0x08000934

08000918 <_init>:
 8000918:	b5f8      	push	{r3, r4, r5, r6, r7, lr}
 800091a:	bf00      	nop
 800091c:	bcf8      	pop	{r3, r4, r5, r6, r7}
 800091e:	bc08      	pop	{r3}
 8000920:	469e      	mov	lr, r3
 8000922:	4770      	bx	lr

08000924 <_fini>:
 8000924:	b5f8      	push	{r3, r4, r5, r6, r7, lr}
 8000926:	bf00      	nop
 8000928:	bcf8      	pop	{r3, r4, r5, r6, r7}
 800092a:	bc08      	pop	{r3}
 800092c:	469e      	mov	lr, r3
 800092e:	4770      	bx	lr
